; Function Attrs: mustprogress uwtable
define void @_ZNK10open_spiel7pentago12PentagoState5CloneEv(ptr dead_on_unwind noalias writable writeonly sret(%"class.std::unique_ptr") align 8 captures(none) %0, ptr noundef nonnull align 8 dereferenceable(93) %1) unnamed_addr #3 align 2 personality ptr @__gxx_personality_v0 {
  %3 = tail call noalias noundef nonnull dereferenceable(96) ptr @_Znwm(i64 noundef 96) #26
  invoke void @_ZN10open_spiel5StateC2ERKS0_(ptr noundef nonnull align 8 dereferenceable(93) %3, ptr noundef nonnull align 8 dereferenceable(93) %1)
          to label %4 unwind label %7

4:                                                ; preds = %2
  store ptr getelementptr inbounds nuw inrange(-16, 304) (i8, ptr @_ZTVN10open_spiel7pentago12PentagoStateE, i64 16), ptr %3, align 8
  %5 = getelementptr inbounds nuw i8, ptr %3, i64 64
  %6 = getelementptr inbounds nuw i8, ptr %1, i64 64
  tail call void @llvm.memcpy.p0.p0.i64(ptr noundef nonnull align 8 dereferenceable(29) %5, ptr noundef nonnull align 8 dereferenceable(29) %6, i64 29, i1 false)
  store ptr %3, ptr %0, align 8
  ret void

7:                                                ; preds = %2
  %8 = landingpad { ptr, i32 }
          cleanup
  tail call void @_ZdlPvm(ptr noundef nonnull %3, i64 noundef 96) #27
  resume { ptr, i32 } %8
}